Certificate:
    Data:
        Version: 3 (0x2)
        Serial Number:
            0d:b4:77:04:17:85:b0:a5:2c:fe:b9:6f:23:a6:19:ac:15:25:01:3c
        Signature Algorithm: sha256WithRSAEncryption
        Issuer: CN = tfl.dev
        Validity
            Not Before: Dec 14 17:24:04 2022 GMT
            Not After : Dec 14 17:24:04 2023 GMT
        Subject: CN = tfl.dev
        Subject Public Key Info:
            Public Key Algorithm: rsaEncryption
                Public-Key: (2048 bit)
                Modulus:
                    00:9a:ef:8f:f4:44:a5:bd:e9:b4:50:b6:f8:5a:26:
                    6b:26:90:29:38:87:e6:5d:63:71:dc:cb:56:af:35:
                    9a:ae:fe:a4:19:74:d9:b5:4f:ae:41:1f:d5:77:93:
                    ec:d8:9b:f2:f2:d9:d9:dc:3e:5d:4b:eb:ce:e5:a9:
                    50:f7:0d:87:fb:96:ad:04:7f:c5:e9:b3:44:80:28:
                    1d:7f:10:e8:d7:d5:ef:f5:b5:a7:87:ec:9c:39:e0:
                    fd:2f:48:94:ac:e2:76:bd:e9:73:54:f8:28:d5:6e:
                    e1:39:6f:a8:85:ce:0a:23:ed:2f:18:7e:06:87:9b:
                    ea:15:63:1c:b7:fa:83:fc:43:0b:d3:a3:e4:ee:b4:
                    aa:ee:c1:f5:32:76:d7:d9:0d:0a:e0:b6:07:51:e3:
                    64:eb:52:8e:80:03:25:7c:01:9b:40:27:9f:4c:ed:
                    57:0d:95:b4:36:d8:39:1a:13:83:72:e6:8f:c8:a8:
                    b1:97:b1:7d:85:f3:5b:6c:74:e6:d3:17:77:e4:9f:
                    17:e3:db:b6:45:30:19:ef:25:a9:06:7a:38:03:36:
                    8c:bb:ee:b9:d1:14:dd:1f:3f:f9:fc:a5:30:18:e2:
                    30:48:50:06:7d:ca:9a:fd:28:f5:34:8e:57:14:75:
                    42:c5:58:dd:e0:25:35:2c:07:8d:d7:2f:f5:59:90:
                    ad:2b
                Exponent: 65537 (0x10001)
        X509v3 extensions:
            X509v3 Basic Constraints: critical
                CA:TRUE
            X509v3 Key Usage: 
                Digital Signature, Non Repudiation, Key Encipherment
            X509v3 Subject Alternative Name: 
                DNS:tfl.dev
            X509v3 Subject Key Identifier: 
                81:77:3A:94:AC:4A:9A:5E:8D:C9:60:61:62:71:48:71:51:CF:51:0D
    Signature Algorithm: sha256WithRSAEncryption
    Signature Value:
        1f:cf:5e:36:6b:4c:92:1d:07:a4:82:67:54:d0:5c:10:6b:dc:
        7f:08:d5:3a:46:fa:40:8f:99:c4:1d:53:bf:54:e9:4f:98:2d:
        c2:e3:5f:24:d4:24:45:4f:d8:5c:99:da:e9:a4:fa:b5:dc:be:
        f4:0d:37:99:e6:ad:70:26:b0:26:fb:7d:98:df:c5:c7:c4:91:
        81:1d:38:ea:ff:7d:04:04:81:c0:6d:eb:b7:f2:85:49:e1:c1:
        65:35:88:37:36:65:39:de:43:2d:49:5d:a7:23:a2:90:e7:67:
        84:df:38:0b:b4:d4:c9:e0:13:0e:ce:50:82:2b:48:50:1e:7d:
        48:16:84:f0:71:f0:5d:73:b6:45:ac:d1:d2:f7:06:87:83:94:
        b3:f4:a2:54:49:4a:98:28:b7:bb:69:ba:74:68:ef:7a:c4:1c:
        8d:a1:12:ec:56:e0:5b:d1:96:65:da:bc:a6:16:82:1c:dd:f6:
        5c:d0:4a:5c:9d:af:2f:c2:92:63:14:b5:9f:75:1d:dc:64:54:
        6d:4f:68:95:76:6b:53:af:0d:bf:e4:68:40:0c:ba:d6:9e:fa:
        57:46:e9:85:f7:c2:59:6a:a2:2c:5c:a3:16:70:5f:af:07:89:
        94:e0:62:54:17:75:7a:e9:7a:2e:d1:cd:df:40:ca:b3:10:9f:
        de:5f:29:e7
-----BEGIN CERTIFICATE-----
MIIDBTCCAe2gAwIBAgIUDbR3BBeFsKUs/rlvI6YZrBUlATwwDQYJKoZIhvcNAQEL
BQAwEjEQMA4GA1UEAwwHdGZsLmRldjAeFw0yMjEyMTQxNzI0MDRaFw0yMzEyMTQx
NzI0MDRaMBIxEDAOBgNVBAMMB3RmbC5kZXYwggEiMA0GCSqGSIb3DQEBAQUAA4IB
DwAwggEKAoIBAQCa74/0RKW96bRQtvhaJmsmkCk4h+ZdY3Hcy1avNZqu/qQZdNm1
T65BH9V3k+zYm/Ly2dncPl1L687lqVD3DYf7lq0Ef8Xps0SAKB1/EOjX1e/1taeH
7Jw54P0vSJSs4na96XNU+CjVbuE5b6iFzgoj7S8YfgaHm+oVYxy3+oP8QwvTo+Tu
tKruwfUydtfZDQrgtgdR42TrUo6AAyV8AZtAJ59M7VcNlbQ22DkaE4Ny5o/IqLGX
sX2F81tsdObTF3fknxfj27ZFMBnvJakGejgDNoy77rnRFN0fP/n8pTAY4jBIUAZ9
ypr9KPU0jlcUdULFWN3gJTUsB43XL/VZkK0rAgMBAAGjUzBRMA8GA1UdEwEB/wQF
MAMBAf8wCwYDVR0PBAQDAgXgMBIGA1UdEQQLMAmCB3RmbC5kZXYwHQYDVR0OBBYE
FIF3OpSsSppejclgYWJxSHFRz1ENMA0GCSqGSIb3DQEBCwUAA4IBAQAfz142a0yS
HQekgmdU0FwQa9x/CNU6RvpAj5nEHVO/VOlPmC3C418k1CRFT9hcmdrppPq13L70
DTeZ5q1wJrAm+32Y38XHxJGBHTjq/30EBIHAbeu38oVJ4cFlNYg3NmU53kMtSV2n
I6KQ52eE3zgLtNTJ4BMOzlCCK0hQHn1IFoTwcfBdc7ZFrNHS9waHg5Sz9KJUSUqY
KLe7abp0aO96xByNoRLsVuBb0ZZl2rymFoIc3fZc0Epcna8vwpJjFLWfdR3cZFRt
T2iVdmtTrw2/5GhADLrWnvpXRumF98JZaqIsXKMWcF+vB4mU4GJUF3V66Xou0c3f
QMqzEJ/eXynn
-----END CERTIFICATE-----
